; ModuleID = '16/895.c'
source_filename = "16/895.c"
target datalayout = "e-m:e-p270:32:32-p271:32:32-p272:64:64-i64:64-f80:128-n8:16:32:64-S128"
target triple = "x86_64-pc-linux-gnu"

@.str = private unnamed_addr constant [3 x i8] c"%d\00", align 1
@.str.1 = private unnamed_addr constant [5 x i8] c"%01d\00", align 1
@.str.2 = private unnamed_addr constant [5 x i8] c"%02d\00", align 1
@.str.3 = private unnamed_addr constant [5 x i8] c"%03d\00", align 1
@.str.4 = private unnamed_addr constant [5 x i8] c"%04d\00", align 1
@.str.5 = private unnamed_addr constant [5 x i8] c"%05d\00", align 1

; Function Attrs: noinline nounwind uwtable
define dso_local i32 @main() #0 {
  %1 = alloca i32, align 4
  %2 = alloca i32, align 4
  %3 = alloca i32, align 4
  %4 = alloca i32, align 4
  %5 = alloca i32, align 4
  %6 = alloca i32, align 4
  %7 = alloca i32, align 4
  %8 = alloca i32, align 4
  store i32 0, i32* %1, align 4
  %9 = call i32 (i8*, ...) @__isoc99_scanf(i8* getelementptr inbounds ([3 x i8], [3 x i8]* @.str, i64 0, i64 0), i32* %2)
  %10 = load i32, i32* %2, align 4
  %11 = sdiv i32 %10, 10000
  store i32 %11, i32* %3, align 4
  %12 = load i32, i32* %2, align 4
  %13 = sdiv i32 %12, 1000
  %14 = load i32, i32* %3, align 4
  %15 = mul nsw i32 %14, 10
  %16 = sub nsw i32 %13, %15
  store i32 %16, i32* %4, align 4
  %17 = load i32, i32* %2, align 4
  %18 = sdiv i32 %17, 100
  %19 = load i32, i32* %4, align 4
  %20 = mul nsw i32 %19, 10
  %21 = sub nsw i32 %18, %20
  %22 = load i32, i32* %3, align 4
  %23 = mul nsw i32 %22, 100
  %24 = sub nsw i32 %21, %23
  store i32 %24, i32* %5, align 4
  %25 = load i32, i32* %2, align 4
  %26 = sdiv i32 %25, 10
  %27 = load i32, i32* %5, align 4
  %28 = mul nsw i32 %27, 10
  %29 = sub nsw i32 %26, %28
  %30 = load i32, i32* %4, align 4
  %31 = mul nsw i32 %30, 100
  %32 = sub nsw i32 %29, %31
  %33 = load i32, i32* %3, align 4
  %34 = mul nsw i32 %33, 1000
  %35 = sub nsw i32 %32, %34
  store i32 %35, i32* %6, align 4
  %36 = load i32, i32* %2, align 4
  %37 = load i32, i32* %6, align 4
  %38 = mul nsw i32 %37, 10
  %39 = sub nsw i32 %36, %38
  %40 = load i32, i32* %5, align 4
  %41 = mul nsw i32 %40, 100
  %42 = sub nsw i32 %39, %41
  %43 = load i32, i32* %4, align 4
  %44 = mul nsw i32 %43, 1000
  %45 = sub nsw i32 %42, %44
  %46 = load i32, i32* %3, align 4
  %47 = mul nsw i32 %46, 10000
  %48 = sub nsw i32 %45, %47
  store i32 %48, i32* %7, align 4
  %49 = load i32, i32* %3, align 4
  %50 = load i32, i32* %4, align 4
  %51 = mul nsw i32 %50, 10
  %52 = add nsw i32 %49, %51
  %53 = load i32, i32* %5, align 4
  %54 = mul nsw i32 %53, 100
  %55 = add nsw i32 %52, %54
  %56 = load i32, i32* %6, align 4
  %57 = mul nsw i32 %56, 1000
  %58 = add nsw i32 %55, %57
  %59 = load i32, i32* %7, align 4
  %60 = mul nsw i32 %59, 10000
  %61 = add nsw i32 %58, %60
  store i32 %61, i32* %8, align 4
  %62 = load i32, i32* %3, align 4
  %63 = icmp eq i32 %62, 0
  br i1 %63, label %64, label %92

64:                                               ; preds = %0
  %65 = load i32, i32* %4, align 4
  %66 = icmp eq i32 %65, 0
  br i1 %66, label %67, label %87

67:                                               ; preds = %64
  %68 = load i32, i32* %5, align 4
  %69 = icmp eq i32 %68, 0
  br i1 %69, label %70, label %82

70:                                               ; preds = %67
  %71 = load i32, i32* %6, align 4
  %72 = icmp eq i32 %71, 0
  br i1 %72, label %73, label %77

73:                                               ; preds = %70
  %74 = load i32, i32* %8, align 4
  %75 = sdiv i32 %74, 10000
  %76 = call i32 (i8*, ...) @printf(i8* getelementptr inbounds ([5 x i8], [5 x i8]* @.str.1, i64 0, i64 0), i32 %75)
  br label %81

77:                                               ; preds = %70
  %78 = load i32, i32* %8, align 4
  %79 = sdiv i32 %78, 1000
  %80 = call i32 (i8*, ...) @printf(i8* getelementptr inbounds ([5 x i8], [5 x i8]* @.str.2, i64 0, i64 0), i32 %79)
  br label %81

81:                                               ; preds = %77, %73
  br label %86

82:                                               ; preds = %67
  %83 = load i32, i32* %8, align 4
  %84 = sdiv i32 %83, 100
  %85 = call i32 (i8*, ...) @printf(i8* getelementptr inbounds ([5 x i8], [5 x i8]* @.str.3, i64 0, i64 0), i32 %84)
  br label %86

86:                                               ; preds = %82, %81
  br label %91

87:                                               ; preds = %64
  %88 = load i32, i32* %8, align 4
  %89 = sdiv i32 %88, 10
  %90 = call i32 (i8*, ...) @printf(i8* getelementptr inbounds ([5 x i8], [5 x i8]* @.str.4, i64 0, i64 0), i32 %89)
  br label %91

91:                                               ; preds = %87, %86
  br label %95

92:                                               ; preds = %0
  %93 = load i32, i32* %8, align 4
  %94 = call i32 (i8*, ...) @printf(i8* getelementptr inbounds ([5 x i8], [5 x i8]* @.str.5, i64 0, i64 0), i32 %93)
  br label %95

95:                                               ; preds = %92, %91
  ret i32 0
}

declare dso_local i32 @__isoc99_scanf(i8*, ...) #1

declare dso_local i32 @printf(i8*, ...) #1


!llvm.module.flags = !{!0}
!llvm.ident = !{!1}

!0 = !{i32 1, !"wchar_size", i32 4}
!1 = !{!"clang version 10.0.0-4ubuntu1 "}
